target datalayout = "e-m:e-p270:32:32-p271:32:32-p272:64:64-i64:64-i128:128-f80:128-n8:16:32:64-S128"
target triple = "x86_64-pc-linux-gnu"

%class.aiVector3t = type { double, double, double }
%"class.std::vector.11" = type { %"struct.std::_Vector_base.12" }
%"struct.std::_Vector_base.12" = type { %"struct.std::_Vector_base<double, std::allocator<double>>::_Vector_impl" }
%"struct.std::_Vector_base<double, std::allocator<double>>::_Vector_impl" = type { %"struct.std::_Vector_base<double, std::allocator<double>>::_Vector_impl_data" }
%"struct.std::_Vector_base<double, std::allocator<double>>::_Vector_impl_data" = type { ptr, ptr, ptr }
%"class.std::bitset" = type { %"struct.std::_Base_bitset" }
%"struct.std::_Base_bitset" = type { i64 }
%"class.Assimp::STEP::Object" = type { ptr, i64, ptr }
%"struct.Assimp::IFC::Schema_2x3::IfcCartesianPoint" = type { %"struct.Assimp::IFC::Schema_2x3::IfcPoint.base", %"struct.Assimp::STEP::ObjectHelper.base.95", %"struct.Assimp::STEP::ListOf", %"class.Assimp::STEP::Object" }
%"struct.Assimp::IFC::Schema_2x3::IfcPoint.base" = type { %"struct.Assimp::IFC::Schema_2x3::IfcGeometricRepresentationItem.base", [7 x i8], %"struct.Assimp::STEP::ObjectHelper.base.93" }
%"struct.Assimp::IFC::Schema_2x3::IfcGeometricRepresentationItem.base" = type { %"struct.Assimp::IFC::Schema_2x3::IfcRepresentationItem.base", [7 x i8], %"struct.Assimp::STEP::ObjectHelper.base.91" }
%"struct.Assimp::IFC::Schema_2x3::IfcRepresentationItem.base" = type { %"struct.Assimp::STEP::ObjectHelper.base.89" }
%"struct.Assimp::STEP::ObjectHelper.base.89" = type <{ ptr, i8 }>
%"struct.Assimp::STEP::ObjectHelper.base.91" = type <{ ptr, i8 }>
%"struct.Assimp::STEP::ObjectHelper.base.93" = type <{ ptr, i8 }>
%"struct.Assimp::STEP::ObjectHelper.base.95" = type { ptr, %"class.std::bitset" }
%"struct.Assimp::STEP::ListOf" = type { %"class.std::vector.11" }
%"struct.Assimp::STEP::Lazy" = type { ptr }
%"struct.Assimp::IFC::Schema_2x3::IfcPlacement" = type { %"struct.Assimp::IFC::Schema_2x3::IfcGeometricRepresentationItem.base", %"struct.Assimp::STEP::ObjectHelper.base.103", %"struct.Assimp::STEP::Lazy.104", %"class.Assimp::STEP::Object" }
%"struct.Assimp::STEP::ObjectHelper.base.103" = type { ptr, %"class.std::bitset" }
%"struct.Assimp::STEP::Lazy.104" = type { ptr }
%"struct.Assimp::IFC::Schema_2x3::IfcPlacement.base" = type { %"struct.Assimp::IFC::Schema_2x3::IfcGeometricRepresentationItem.base", %"struct.Assimp::STEP::ObjectHelper.base.103", %"struct.Assimp::STEP::Lazy.104" }
%"struct.Assimp::STEP::Maybe.107" = type <{ %"struct.Assimp::STEP::Lazy", i8, [7 x i8] }>
%"struct.Assimp::IFC::Schema_2x3::IfcAxis1Placement" = type { %"struct.Assimp::IFC::Schema_2x3::IfcPlacement.base", %"struct.Assimp::STEP::ObjectHelper.base.112", %"struct.Assimp::STEP::Maybe.107", %"class.Assimp::STEP::Object" }
%"struct.Assimp::STEP::ObjectHelper.base.112" = type { ptr, %"class.std::bitset" }

; Function Attrs: inlinehint mustprogress nounwind uwtable
define linkonce_odr hidden noundef nonnull align 8 dereferenceable(8) ptr @_ZN10aiVector3tIdEixEj(ptr noundef nonnull align 8 dereferenceable(24) %0, i32 noundef %1) #3 comdat align 2 {
  %3 = alloca ptr, align 8
  %4 = alloca ptr, align 8
  %5 = alloca i32, align 4
  store ptr %0, ptr %4, align 8
  store i32 %1, ptr %5, align 4
  %6 = load ptr, ptr %4, align 8
  %7 = load i32, ptr %5, align 4
  switch i32 %7, label %14 [
    i32 0, label %8
    i32 1, label %10
    i32 2, label %12
  ]

8:                                                ; preds = %2
  %9 = getelementptr inbounds nuw %class.aiVector3t, ptr %6, i32 0, i32 0
  store ptr %9, ptr %3, align 8
  br label %17

10:                                               ; preds = %2
  %11 = getelementptr inbounds nuw %class.aiVector3t, ptr %6, i32 0, i32 1
  store ptr %11, ptr %3, align 8
  br label %17

12:                                               ; preds = %2
  %13 = getelementptr inbounds nuw %class.aiVector3t, ptr %6, i32 0, i32 2
  store ptr %13, ptr %3, align 8
  br label %17

14:                                               ; preds = %2
  br label %15

15:                                               ; preds = %14
  %16 = getelementptr inbounds nuw %class.aiVector3t, ptr %6, i32 0, i32 0
  store ptr %16, ptr %3, align 8
  br label %17

17:                                               ; preds = %15, %12, %10, %8
  %18 = load ptr, ptr %3, align 8
  ret ptr %18
}

; Function Attrs: mustprogress nounwind uwtable
define linkonce_odr noundef nonnull align 8 dereferenceable(8) ptr @_ZNKSt6vectorIdSaIdEEixEm(ptr noundef nonnull align 8 dereferenceable(24) %0, i64 noundef %1) #1 comdat align 2 {
  %3 = alloca ptr, align 8
  %4 = alloca i64, align 8
  store ptr %0, ptr %3, align 8
  store i64 %1, ptr %4, align 8
  %5 = load ptr, ptr %3, align 8
  %6 = getelementptr inbounds nuw %"struct.std::_Vector_base.12", ptr %5, i32 0, i32 0
  %7 = getelementptr inbounds nuw %"struct.std::_Vector_base<double, std::allocator<double>>::_Vector_impl_data", ptr %6, i32 0, i32 0
  %8 = load ptr, ptr %7, align 8
  %9 = load i64, ptr %4, align 8
  %10 = getelementptr inbounds nuw double, ptr %8, i64 %9
  ret ptr %10
}

; Function Attrs: mustprogress nounwind uwtable
define linkonce_odr noundef i64 @_ZNKSt6vectorIdSaIdEE4sizeEv(ptr noundef nonnull align 8 dereferenceable(24) %0) #1 comdat align 2 {
  %2 = alloca ptr, align 8
  store ptr %0, ptr %2, align 8
  %3 = load ptr, ptr %2, align 8
  %4 = getelementptr inbounds nuw %"struct.std::_Vector_base.12", ptr %3, i32 0, i32 0
  %5 = getelementptr inbounds nuw %"struct.std::_Vector_base<double, std::allocator<double>>::_Vector_impl_data", ptr %4, i32 0, i32 1
  %6 = load ptr, ptr %5, align 8
  %7 = getelementptr inbounds nuw %"struct.std::_Vector_base.12", ptr %3, i32 0, i32 0
  %8 = getelementptr inbounds nuw %"struct.std::_Vector_base<double, std::allocator<double>>::_Vector_impl_data", ptr %7, i32 0, i32 0
  %9 = load ptr, ptr %8, align 8
  %10 = ptrtoint ptr %6 to i64
  %11 = ptrtoint ptr %9 to i64
  %12 = sub i64 %10, %11
  %13 = sdiv exact i64 %12, 8
  ret i64 %13
}

; Function Attrs: mustprogress nounwind uwtable
define linkonce_odr hidden void @_ZN10aiVector3tIdEC2Ev(ptr noundef nonnull align 8 dereferenceable(24) %0) unnamed_addr #1 comdat align 2 {
  %2 = alloca ptr, align 8
  store ptr %0, ptr %2, align 8
  %3 = load ptr, ptr %2, align 8
  %4 = getelementptr inbounds nuw %class.aiVector3t, ptr %3, i32 0, i32 0
  store double 0.000000e+00, ptr %4, align 8
  %5 = getelementptr inbounds nuw %class.aiVector3t, ptr %3, i32 0, i32 1
  store double 0.000000e+00, ptr %5, align 8
  %6 = getelementptr inbounds nuw %class.aiVector3t, ptr %3, i32 0, i32 2
  store double 0.000000e+00, ptr %6, align 8
  ret void
}

; Function Attrs: mustprogress nounwind uwtable
define linkonce_odr hidden void @_ZN10aiVector3tIdEC2Eddd(ptr noundef nonnull align 8 dereferenceable(24) %0, double noundef %1, double noundef %2, double noundef %3) unnamed_addr #1 comdat align 2 {
  %5 = alloca ptr, align 8
  %6 = alloca double, align 8
  %7 = alloca double, align 8
  %8 = alloca double, align 8
  store ptr %0, ptr %5, align 8
  store double %1, ptr %6, align 8
  store double %2, ptr %7, align 8
  store double %3, ptr %8, align 8
  %9 = load ptr, ptr %5, align 8
  %10 = getelementptr inbounds nuw %class.aiVector3t, ptr %9, i32 0, i32 0
  %11 = load double, ptr %6, align 8
  store double %11, ptr %10, align 8
  %12 = getelementptr inbounds nuw %class.aiVector3t, ptr %9, i32 0, i32 1
  %13 = load double, ptr %7, align 8
  store double %13, ptr %12, align 8
  %14 = getelementptr inbounds nuw %class.aiVector3t, ptr %9, i32 0, i32 2
  %15 = load double, ptr %8, align 8
  store double %15, ptr %14, align 8
  ret void
}

; Function Attrs: mustprogress nounwind uwtable
define linkonce_odr hidden noundef nonnull align 8 dereferenceable(8) ptr @_ZNK6Assimp4STEP5MaybeINS0_4LazyINS_3IFC10Schema_2x312IfcDirectionEEEE3GetEv(ptr noundef nonnull align 8 dereferenceable(9) %0) #1 comdat align 2 {
  %2 = alloca ptr, align 8
  store ptr %0, ptr %2, align 8
  %3 = load ptr, ptr %2, align 8
  %4 = getelementptr inbounds nuw %"struct.Assimp::STEP::Maybe.107", ptr %3, i32 0, i32 0
  ret ptr %4
}

; Function Attrs: mustprogress nounwind uwtable
define linkonce_odr hidden noundef zeroext i1 @_ZNK6Assimp4STEP5MaybeINS0_4LazyINS_3IFC10Schema_2x312IfcDirectionEEEEcvbEv(ptr noundef nonnull align 8 dereferenceable(9) %0) #1 comdat align 2 {
  %2 = alloca ptr, align 8
  store ptr %0, ptr %2, align 8
  %3 = load ptr, ptr %2, align 8
  %4 = getelementptr inbounds nuw %"struct.Assimp::STEP::Maybe.107", ptr %3, i32 0, i32 1
  %5 = load i8, ptr %4, align 8, !range !8, !noundef !9
  %6 = trunc i8 %5 to i1
  ret i1 %6
}

; Function Attrs: mustprogress uwtable
define hidden void @_ZN6Assimp3IFC21ConvertCartesianPointER10aiVector3tIdERKNS0_10Schema_2x317IfcCartesianPointE(ptr noundef nonnull align 8 dereferenceable(24) %0, ptr noundef nonnull align 8 dereferenceable(88) %1) #0 {
  %3 = alloca ptr, align 8
  %4 = alloca ptr, align 8
  %5 = alloca %class.aiVector3t, align 8
  %6 = alloca i64, align 8
  store ptr %0, ptr %3, align 8
  store ptr %1, ptr %4, align 8
  call void @llvm.lifetime.start.p0(i64 24, ptr %5) #20
  call void @_ZN10aiVector3tIdEC2Ev(ptr noundef nonnull align 8 dereferenceable(24) %5) #20
  %7 = load ptr, ptr %3, align 8
  call void @llvm.memcpy.p0.p0.i64(ptr align 8 %7, ptr align 8 %5, i64 24, i1 false)
  call void @llvm.lifetime.end.p0(i64 24, ptr %5) #20
  call void @llvm.lifetime.start.p0(i64 8, ptr %6) #20
  store i64 0, ptr %6, align 8
  br label %8

8:                                                ; preds = %25, %2
  %9 = load i64, ptr %6, align 8
  %10 = load ptr, ptr %4, align 8
  %11 = getelementptr inbounds nuw %"struct.Assimp::IFC::Schema_2x3::IfcCartesianPoint", ptr %10, i32 0, i32 2
  %12 = call noundef i64 @_ZNKSt6vectorIdSaIdEE4sizeEv(ptr noundef nonnull align 8 dereferenceable(24) %11) #20
  %13 = icmp ult i64 %9, %12
  br i1 %13, label %15, label %14

14:                                               ; preds = %8
  call void @llvm.lifetime.end.p0(i64 8, ptr %6) #20
  br label %28

15:                                               ; preds = %8
  %16 = load ptr, ptr %4, align 8
  %17 = getelementptr inbounds nuw %"struct.Assimp::IFC::Schema_2x3::IfcCartesianPoint", ptr %16, i32 0, i32 2
  %18 = load i64, ptr %6, align 8
  %19 = call noundef nonnull align 8 dereferenceable(8) ptr @_ZNKSt6vectorIdSaIdEEixEm(ptr noundef nonnull align 8 dereferenceable(24) %17, i64 noundef %18) #20
  %20 = load double, ptr %19, align 8
  %21 = load ptr, ptr %3, align 8
  %22 = load i64, ptr %6, align 8
  %23 = trunc i64 %22 to i32
  %24 = call noundef nonnull align 8 dereferenceable(8) ptr @_ZN10aiVector3tIdEixEj(ptr noundef nonnull align 8 dereferenceable(24) %21, i32 noundef %23)
  store double %20, ptr %24, align 8
  br label %25

25:                                               ; preds = %15
  %26 = load i64, ptr %6, align 8
  %27 = add i64 %26, 1
  store i64 %27, ptr %6, align 8
  br label %8, !llvm.loop !30

28:                                               ; preds = %14
  ret void
}

; Function Attrs: mustprogress uwtable
define hidden void @_ZN6Assimp3IFC20ConvertAxisPlacementER10aiVector3tIdES3_RKNS0_10Schema_2x317IfcAxis1PlacementE(ptr noundef nonnull align 8 dereferenceable(24) %0, ptr noundef nonnull align 8 dereferenceable(24) %1, ptr noundef nonnull align 8 dereferenceable(88) %2) #0 {
  %4 = alloca ptr, align 8
  %5 = alloca ptr, align 8
  %6 = alloca ptr, align 8
  %7 = alloca %class.aiVector3t, align 8
  store ptr %0, ptr %4, align 8
  store ptr %1, ptr %5, align 8
  store ptr %2, ptr %6, align 8
  %8 = load ptr, ptr %5, align 8
  %9 = load ptr, ptr %6, align 8
  %10 = getelementptr inbounds nuw %"struct.Assimp::IFC::Schema_2x3::IfcPlacement", ptr %9, i32 0, i32 2
  %11 = call noundef nonnull align 8 dereferenceable(88) ptr @_ZNK6Assimp4STEP4LazyINS_3IFC10Schema_2x317IfcCartesianPointEEcvRKS4_Ev(ptr noundef nonnull align 8 dereferenceable(8) %10)
  call void @_ZN6Assimp3IFC21ConvertCartesianPointER10aiVector3tIdERKNS0_10Schema_2x317IfcCartesianPointE(ptr noundef nonnull align 8 dereferenceable(24) %8, ptr noundef nonnull align 8 dereferenceable(88) %11)
  %12 = load ptr, ptr %6, align 8
  %13 = getelementptr inbounds nuw %"struct.Assimp::IFC::Schema_2x3::IfcAxis1Placement", ptr %12, i32 0, i32 2
  %14 = call noundef zeroext i1 @_ZNK6Assimp4STEP5MaybeINS0_4LazyINS_3IFC10Schema_2x312IfcDirectionEEEEcvbEv(ptr noundef nonnull align 8 dereferenceable(9) %13)
  br i1 %14, label %15, label %21

15:                                               ; preds = %3
  %16 = load ptr, ptr %4, align 8
  %17 = load ptr, ptr %6, align 8
  %18 = getelementptr inbounds nuw %"struct.Assimp::IFC::Schema_2x3::IfcAxis1Placement", ptr %17, i32 0, i32 2
  %19 = call noundef nonnull align 8 dereferenceable(8) ptr @_ZNK6Assimp4STEP5MaybeINS0_4LazyINS_3IFC10Schema_2x312IfcDirectionEEEE3GetEv(ptr noundef nonnull align 8 dereferenceable(9) %18)
  %20 = call noundef nonnull align 8 dereferenceable(72) ptr @_ZNK6Assimp4STEP4LazyINS_3IFC10Schema_2x312IfcDirectionEEcvRKS4_Ev(ptr noundef nonnull align 8 dereferenceable(8) %19)
  call void @_ZN6Assimp3IFC16ConvertDirectionER10aiVector3tIdERKNS0_10Schema_2x312IfcDirectionE(ptr noundef nonnull align 8 dereferenceable(24) %16, ptr noundef nonnull align 8 dereferenceable(72) %20)
  br label %23

21:                                               ; preds = %3
  call void @llvm.lifetime.start.p0(i64 24, ptr %7) #20
  call void @_ZN10aiVector3tIdEC2Eddd(ptr noundef nonnull align 8 dereferenceable(24) %7, double noundef 0.000000e+00, double noundef 0.000000e+00, double noundef 1.000000e+00)
  %22 = load ptr, ptr %4, align 8
  call void @llvm.memcpy.p0.p0.i64(ptr align 8 %22, ptr align 8 %7, i64 24, i1 false)
  call void @llvm.lifetime.end.p0(i64 24, ptr %7) #20
  br label %23

23:                                               ; preds = %21, %15
  ret void
}