; Function Attrs: mustprogress uwtable
define hidden void @_ZN6Assimp3IFC20ConvertAxisPlacementER10aiVector3tIdES3_RKNS0_10Schema_2x317IfcAxis1PlacementE(ptr noundef nonnull align 8 captures(none) dereferenceable(24) %0, ptr noundef nonnull writeonly align 8 captures(none) dereferenceable(24) initializes((0, 24)) %1, ptr noundef nonnull align 8 dereferenceable(88) %2) local_unnamed_addr #7 {
  %4 = getelementptr inbounds nuw i8, ptr %2, i64 48
  %5 = tail call noundef nonnull align 8 dereferenceable(88) ptr @_ZNK6Assimp4STEP4LazyINS_3IFC10Schema_2x317IfcCartesianPointEEcvRKS4_Ev(ptr noundef nonnull align 8 dereferenceable(8) %4)
  tail call void @llvm.memset.p0.i64(ptr noundef nonnull align 8 dereferenceable(24) %1, i8 0, i64 24, i1 false)
  %6 = getelementptr inbounds nuw i8, ptr %5, i64 64
  %7 = getelementptr inbounds nuw i8, ptr %5, i64 72
  %8 = load ptr, ptr %7, align 8
  %9 = load ptr, ptr %6, align 8
  %.not.i = icmp eq ptr %8, %9
  br i1 %.not.i, label %_ZN6Assimp3IFC21ConvertCartesianPointER10aiVector3tIdERKNS0_10Schema_2x317IfcCartesianPointE.exit, label %.lr.ph.i

.lr.ph.i:                                         ; preds = %3
  %10 = getelementptr inbounds nuw i8, ptr %1, i64 8
  %11 = getelementptr inbounds nuw i8, ptr %1, i64 16
  br label %12

12:                                               ; preds = %_ZN10aiVector3tIdEixEj.exit.i, %.lr.ph.i
  %13 = phi ptr [ %9, %.lr.ph.i ], [ %21, %_ZN10aiVector3tIdEixEj.exit.i ]
  %.07.i = phi i64 [ 0, %.lr.ph.i ], [ %19, %_ZN10aiVector3tIdEixEj.exit.i ]
  %14 = getelementptr inbounds nuw double, ptr %13, i64 %.07.i
  %15 = load double, ptr %14, align 8
  %16 = trunc i64 %.07.i to i32
  switch i32 %16, label %_ZN10aiVector3tIdEixEj.exit.i [
    i32 2, label %18
    i32 1, label %17
  ]

17:                                               ; preds = %12
  br label %_ZN10aiVector3tIdEixEj.exit.i

18:                                               ; preds = %12
  br label %_ZN10aiVector3tIdEixEj.exit.i

_ZN10aiVector3tIdEixEj.exit.i:                    ; preds = %18, %17, %12
  %.0.i.i = phi ptr [ %11, %18 ], [ %10, %17 ], [ %1, %12 ]
  store double %15, ptr %.0.i.i, align 8
  %19 = add nuw i64 %.07.i, 1
  %20 = load ptr, ptr %7, align 8
  %21 = load ptr, ptr %6, align 8
  %22 = ptrtoint ptr %20 to i64
  %23 = ptrtoint ptr %21 to i64
  %24 = sub i64 %22, %23
  %25 = ashr exact i64 %24, 3
  %26 = icmp ult i64 %19, %25
  br i1 %26, label %12, label %_ZN6Assimp3IFC21ConvertCartesianPointER10aiVector3tIdERKNS0_10Schema_2x317IfcCartesianPointE.exit, !llvm.loop !152

_ZN6Assimp3IFC21ConvertCartesianPointER10aiVector3tIdERKNS0_10Schema_2x317IfcCartesianPointE.exit: ; preds = %_ZN10aiVector3tIdEixEj.exit.i, %3
  %27 = getelementptr inbounds nuw i8, ptr %2, i64 80
  %28 = load i8, ptr %27, align 8, !range !154, !noundef !155
  %29 = trunc nuw i8 %28 to i1
  br i1 %29, label %30, label %33

30:                                               ; preds = %_ZN6Assimp3IFC21ConvertCartesianPointER10aiVector3tIdERKNS0_10Schema_2x317IfcCartesianPointE.exit
  %31 = getelementptr inbounds nuw i8, ptr %2, i64 72
  %32 = tail call noundef nonnull align 8 dereferenceable(72) ptr @_ZNK6Assimp4STEP4LazyINS_3IFC10Schema_2x312IfcDirectionEEcvRKS4_Ev(ptr noundef nonnull align 8 dereferenceable(8) %31)
  tail call void @_ZN6Assimp3IFC16ConvertDirectionER10aiVector3tIdERKNS0_10Schema_2x312IfcDirectionE(ptr noundef nonnull align 8 dereferenceable(24) %0, ptr noundef nonnull align 8 dereferenceable(72) %32)
  br label %34

33:                                               ; preds = %_ZN6Assimp3IFC21ConvertCartesianPointER10aiVector3tIdERKNS0_10Schema_2x317IfcCartesianPointE.exit
  %.sroa.5.0..sroa_idx = getelementptr inbounds nuw i8, ptr %0, i64 16
  tail call void @llvm.memset.p0.i64(ptr noundef nonnull align 8 dereferenceable(16) %0, i8 0, i64 16, i1 false)
  store double 1.000000e+00, ptr %.sroa.5.0..sroa_idx, align 8
  br label %34

34:                                               ; preds = %33, %30
  ret void
}